; ModuleID = '17/1163.c'
source_filename = "17/1163.c"
target datalayout = "e-m:e-p270:32:32-p271:32:32-p272:64:64-i64:64-f80:128-n8:16:32:64-S128"
target triple = "x86_64-pc-linux-gnu"

@.str = private unnamed_addr constant [3 x i8] c"%d\00", align 1
@.str.1 = private unnamed_addr constant [3 x i8] c"%s\00", align 1
@.str.2 = private unnamed_addr constant [3 x i8] c"%c\00", align 1
@.str.3 = private unnamed_addr constant [2 x i8] c"\0A\00", align 1

; Function Attrs: noinline nounwind uwtable
define dso_local i32 @main() #0 {
  %1 = alloca i32, align 4
  %2 = alloca i32, align 4
  %3 = alloca i32, align 4
  %4 = alloca i32, align 4
  %5 = alloca i32, align 4
  %6 = alloca i32, align 4
  %7 = alloca i32, align 4
  %8 = alloca i32, align 4
  %9 = alloca i32, align 4
  %10 = alloca [200 x i8], align 16
  store i32 0, i32* %1, align 4
  store i32 1, i32* %6, align 4
  %11 = call i32 (i8*, ...) @__isoc99_scanf(i8* getelementptr inbounds ([3 x i8], [3 x i8]* @.str, i64 0, i64 0), i32* %6)
  store i32 0, i32* %3, align 4
  br label %12

12:                                               ; preds = %117, %0
  %13 = load i32, i32* %3, align 4
  %14 = load i32, i32* %6, align 4
  %15 = icmp slt i32 %13, %14
  br i1 %15, label %16, label %120

16:                                               ; preds = %12
  %17 = getelementptr inbounds [200 x i8], [200 x i8]* %10, i64 0, i64 0
  %18 = call i32 (i8*, ...) @__isoc99_scanf(i8* getelementptr inbounds ([3 x i8], [3 x i8]* @.str.1, i64 0, i64 0), i8* %17)
  %19 = getelementptr inbounds [200 x i8], [200 x i8]* %10, i64 0, i64 0
  %20 = call i64 @strlen(i8* %19) #3
  %21 = trunc i64 %20 to i32
  store i32 %21, i32* %4, align 4
  store i32 0, i32* %5, align 4
  br label %22

22:                                               ; preds = %33, %16
  %23 = load i32, i32* %5, align 4
  %24 = load i32, i32* %4, align 4
  %25 = icmp slt i32 %23, %24
  br i1 %25, label %26, label %36

26:                                               ; preds = %22
  %27 = load i32, i32* %5, align 4
  %28 = sext i32 %27 to i64
  %29 = getelementptr inbounds [200 x i8], [200 x i8]* %10, i64 0, i64 %28
  %30 = load i8, i8* %29, align 1
  %31 = sext i8 %30 to i32
  %32 = call i32 (i8*, ...) @printf(i8* getelementptr inbounds ([3 x i8], [3 x i8]* @.str.2, i64 0, i64 0), i32 %31)
  br label %33

33:                                               ; preds = %26
  %34 = load i32, i32* %5, align 4
  %35 = add nsw i32 %34, 1
  store i32 %35, i32* %5, align 4
  br label %22

36:                                               ; preds = %22
  %37 = call i32 (i8*, ...) @printf(i8* getelementptr inbounds ([2 x i8], [2 x i8]* @.str.3, i64 0, i64 0))
  store i32 0, i32* %5, align 4
  br label %38

38:                                               ; preds = %97, %36
  %39 = load i32, i32* %5, align 4
  %40 = load i32, i32* %4, align 4
  %41 = icmp slt i32 %39, %40
  br i1 %41, label %42, label %100

42:                                               ; preds = %38
  %43 = load i32, i32* %5, align 4
  %44 = sext i32 %43 to i64
  %45 = getelementptr inbounds [200 x i8], [200 x i8]* %10, i64 0, i64 %44
  %46 = load i8, i8* %45, align 1
  %47 = sext i8 %46 to i32
  %48 = icmp eq i32 %47, 40
  br i1 %48, label %49, label %53

49:                                               ; preds = %42
  %50 = load i32, i32* %5, align 4
  %51 = sext i32 %50 to i64
  %52 = getelementptr inbounds [200 x i8], [200 x i8]* %10, i64 0, i64 %51
  store i8 36, i8* %52, align 1
  br label %96

53:                                               ; preds = %42
  %54 = load i32, i32* %5, align 4
  %55 = sext i32 %54 to i64
  %56 = getelementptr inbounds [200 x i8], [200 x i8]* %10, i64 0, i64 %55
  %57 = load i8, i8* %56, align 1
  %58 = sext i8 %57 to i32
  %59 = icmp eq i32 %58, 41
  br i1 %59, label %60, label %91

60:                                               ; preds = %53
  %61 = load i32, i32* %5, align 4
  store i32 %61, i32* %2, align 4
  br label %62

62:                                               ; preds = %87, %60
  %63 = load i32, i32* %2, align 4
  %64 = icmp sge i32 %63, -1
  br i1 %64, label %65, label %90

65:                                               ; preds = %62
  %66 = load i32, i32* %2, align 4
  %67 = icmp eq i32 %66, -1
  br i1 %67, label %68, label %72

68:                                               ; preds = %65
  %69 = load i32, i32* %5, align 4
  %70 = sext i32 %69 to i64
  %71 = getelementptr inbounds [200 x i8], [200 x i8]* %10, i64 0, i64 %70
  store i8 63, i8* %71, align 1
  br label %90

72:                                               ; preds = %65
  %73 = load i32, i32* %2, align 4
  %74 = sext i32 %73 to i64
  %75 = getelementptr inbounds [200 x i8], [200 x i8]* %10, i64 0, i64 %74
  %76 = load i8, i8* %75, align 1
  %77 = sext i8 %76 to i32
  %78 = icmp eq i32 %77, 36
  br i1 %78, label %79, label %86

79:                                               ; preds = %72
  %80 = load i32, i32* %2, align 4
  %81 = sext i32 %80 to i64
  %82 = getelementptr inbounds [200 x i8], [200 x i8]* %10, i64 0, i64 %81
  store i8 32, i8* %82, align 1
  %83 = load i32, i32* %5, align 4
  %84 = sext i32 %83 to i64
  %85 = getelementptr inbounds [200 x i8], [200 x i8]* %10, i64 0, i64 %84
  store i8 32, i8* %85, align 1
  br label %90

86:                                               ; preds = %72
  br label %87

87:                                               ; preds = %86
  %88 = load i32, i32* %2, align 4
  %89 = add nsw i32 %88, -1
  store i32 %89, i32* %2, align 4
  br label %62

90:                                               ; preds = %79, %68, %62
  br label %95

91:                                               ; preds = %53
  %92 = load i32, i32* %5, align 4
  %93 = sext i32 %92 to i64
  %94 = getelementptr inbounds [200 x i8], [200 x i8]* %10, i64 0, i64 %93
  store i8 32, i8* %94, align 1
  br label %95

95:                                               ; preds = %91, %90
  br label %96

96:                                               ; preds = %95, %49
  br label %97

97:                                               ; preds = %96
  %98 = load i32, i32* %5, align 4
  %99 = add nsw i32 %98, 1
  store i32 %99, i32* %5, align 4
  br label %38

100:                                              ; preds = %38
  store i32 0, i32* %5, align 4
  br label %101

101:                                              ; preds = %112, %100
  %102 = load i32, i32* %5, align 4
  %103 = load i32, i32* %4, align 4
  %104 = icmp slt i32 %102, %103
  br i1 %104, label %105, label %115

105:                                              ; preds = %101
  %106 = load i32, i32* %5, align 4
  %107 = sext i32 %106 to i64
  %108 = getelementptr inbounds [200 x i8], [200 x i8]* %10, i64 0, i64 %107
  %109 = load i8, i8* %108, align 1
  %110 = sext i8 %109 to i32
  %111 = call i32 (i8*, ...) @printf(i8* getelementptr inbounds ([3 x i8], [3 x i8]* @.str.2, i64 0, i64 0), i32 %110)
  br label %112

112:                                              ; preds = %105
  %113 = load i32, i32* %5, align 4
  %114 = add nsw i32 %113, 1
  store i32 %114, i32* %5, align 4
  br label %101

115:                                              ; preds = %101
  %116 = call i32 (i8*, ...) @printf(i8* getelementptr inbounds ([2 x i8], [2 x i8]* @.str.3, i64 0, i64 0))
  br label %117

117:                                              ; preds = %115
  %118 = load i32, i32* %3, align 4
  %119 = add nsw i32 %118, 1
  store i32 %119, i32* %3, align 4
  br label %12

120:                                              ; preds = %12
  ret i32 0
}

declare dso_local i32 @__isoc99_scanf(i8*, ...) #1

; Function Attrs: nounwind readonly
declare dso_local i64 @strlen(i8*) #2

declare dso_local i32 @printf(i8*, ...) #1


!llvm.module.flags = !{!0}
!llvm.ident = !{!1}

!0 = !{i32 1, !"wchar_size", i32 4}
!1 = !{!"clang version 10.0.0-4ubuntu1 "}
